; Function Attrs: mustprogress uwtable
define hidden noundef zeroext i1 @_ZNK4cvc58internal12AtomRequests9isTriggerENS0_12NodeTemplateILb0EEE(ptr noundef nonnull align 8 dereferenceable(248) %this, ptr nocapture noundef readonly %atom) local_unnamed_addr #3 align 2 personality ptr @__gxx_personality_v0 {
entry:
  %agg.tmp = alloca %"class.cvc5::internal::NodeTemplate", align 8
  %0 = load ptr, ptr %atom, align 8
  store ptr %0, ptr %agg.tmp, align 8
  %call = call noundef i64 @_ZNK4cvc58internal12AtomRequests7getListENS0_12NodeTemplateILb0EEE(ptr noundef nonnull align 8 dereferenceable(248) %this, ptr noundef nonnull %agg.tmp)
  %cmp = icmp ne i64 %call, -1
  ret i1 %cmp
}